; Function Attrs: mustprogress nofree norecurse nosync nounwind willreturn memory(argmem: read) uwtable
define hidden noundef nonnull align 8 dereferenceable(16) ptr @_ZN2cv11bioinspired12RetinaFilter11getContoursEv(ptr noundef nonnull readonly align 8 dereferenceable(1217) %0) local_unnamed_addr #12 align 2 {
  %2 = getelementptr inbounds nuw i8, ptr %0, i64 1216
  %3 = load i8, ptr %2, align 8, !tbaa !51, !range !93, !noundef !94
  %4 = trunc nuw i8 %3 to i1
  %5 = getelementptr inbounds nuw i8, ptr %0, i64 1040
  %6 = load ptr, ptr %5, align 8
  %7 = getelementptr inbounds nuw i8, ptr %6, i64 8
  %8 = getelementptr inbounds nuw i8, ptr %0, i64 232
  %.0 = select i1 %4, ptr %7, ptr %8
  ret ptr %.0
}